ARM GAS  E:\msys32\tmp\ccOXduHf.s 			page 1


   1              		.cpu cortex-m4
   2              		.eabi_attribute 27, 1
   3              		.eabi_attribute 28, 1
   4              		.eabi_attribute 20, 1
   5              		.eabi_attribute 21, 1
   6              		.eabi_attribute 23, 3
   7              		.eabi_attribute 24, 1
   8              		.eabi_attribute 25, 1
   9              		.eabi_attribute 26, 1
  10              		.eabi_attribute 30, 1
  11              		.eabi_attribute 34, 1
  12              		.eabi_attribute 18, 4
  13              		.file	"stm32f4xx_it.c"
  14              		.text
  15              	.Ltext0:
  16              		.cfi_sections	.debug_frame
  17              		.section	.text.TIM2_IRQHandler,"ax",%progbits
  18              		.align	1
  19              		.global	TIM2_IRQHandler
  20              		.syntax unified
  21              		.thumb
  22              		.thumb_func
  23              		.fpu fpv4-sp-d16
  25              	TIM2_IRQHandler:
  26              	.LFB0:
  27              		.file 1 "Src/stm32f4xx_it.c"
   1:Src/stm32f4xx_it.c **** #include "project.h"
   2:Src/stm32f4xx_it.c **** 
   3:Src/stm32f4xx_it.c **** void TIM2_IRQHandler(){
  28              		.loc 1 3 0
  29              		.cfi_startproc
  30              		@ args = 0, pretend = 0, frame = 0
  31              		@ frame_needed = 0, uses_anonymous_args = 0
  32 0000 08B5     		push	{r3, lr}
  33              	.LCFI0:
  34              		.cfi_def_cfa_offset 8
  35              		.cfi_offset 3, -8
  36              		.cfi_offset 14, -4
   4:Src/stm32f4xx_it.c **** 	u32_t temp_reg ; 
   5:Src/stm32f4xx_it.c **** 	
   6:Src/stm32f4xx_it.c **** 	GPIO_TongglePin(mGPIOD , (mGPIO_PIN(12)|mGPIO_PIN(13)|mGPIO_PIN(14) | mGPIO_PIN(15)) );
  37              		.loc 1 6 0
  38 0002 4FF47041 		mov	r1, #61440
  39 0006 0648     		ldr	r0, .L3
  40 0008 FFF7FEFF 		bl	GPIO_TongglePin
  41              	.LVL0:
   7:Src/stm32f4xx_it.c **** 
   8:Src/stm32f4xx_it.c **** 	temp_reg = read_reg(mTIM_SR(mTIM2) , ~(0x1u<<0));
  42              		.loc 1 8 0
  43 000c 054A     		ldr	r2, .L3+4
  44 000e 1368     		ldr	r3, [r2]
  45 0010 23F00103 		bic	r3, r3, #1
  46              	.LVL1:
   9:Src/stm32f4xx_it.c ****     write_reg(mTIM_SR(mTIM2) , temp_reg);
  47              		.loc 1 9 0
  48 0014 1360     		str	r3, [r2]
  10:Src/stm32f4xx_it.c ****     write_reg(mNVIC_ICPR , (1 << 28) );
ARM GAS  E:\msys32\tmp\ccOXduHf.s 			page 2


  49              		.loc 1 10 0
  50 0016 044B     		ldr	r3, .L3+8
  51              	.LVL2:
  52 0018 4FF08052 		mov	r2, #268435456
  53              	.LVL3:
  54 001c 1A60     		str	r2, [r3]
  11:Src/stm32f4xx_it.c **** 	
  12:Src/stm32f4xx_it.c **** }
  55              		.loc 1 12 0
  56 001e 08BD     		pop	{r3, pc}
  57              	.L4:
  58              		.align	2
  59              	.L3:
  60 0020 000C0240 		.word	1073875968
  61 0024 10000040 		.word	1073741840
  62 0028 80E200E0 		.word	-536812928
  63              		.cfi_endproc
  64              	.LFE0:
  66              		.section	.text.NMI_Handler,"ax",%progbits
  67              		.align	1
  68              		.global	NMI_Handler
  69              		.syntax unified
  70              		.thumb
  71              		.thumb_func
  72              		.fpu fpv4-sp-d16
  74              	NMI_Handler:
  75              	.LFB1:
  13:Src/stm32f4xx_it.c **** 
  14:Src/stm32f4xx_it.c **** 
  15:Src/stm32f4xx_it.c **** void NMI_Handler(void)
  16:Src/stm32f4xx_it.c **** {
  76              		.loc 1 16 0
  77              		.cfi_startproc
  78              		@ args = 0, pretend = 0, frame = 0
  79              		@ frame_needed = 0, uses_anonymous_args = 0
  80              		@ link register save eliminated.
  17:Src/stm32f4xx_it.c **** }
  81              		.loc 1 17 0
  82 0000 7047     		bx	lr
  83              		.cfi_endproc
  84              	.LFE1:
  86              		.section	.text.HardFault_Handler,"ax",%progbits
  87              		.align	1
  88              		.global	HardFault_Handler
  89              		.syntax unified
  90              		.thumb
  91              		.thumb_func
  92              		.fpu fpv4-sp-d16
  94              	HardFault_Handler:
  95              	.LFB2:
  18:Src/stm32f4xx_it.c **** 
  19:Src/stm32f4xx_it.c **** void HardFault_Handler(void)
  20:Src/stm32f4xx_it.c **** {
  96              		.loc 1 20 0
  97              		.cfi_startproc
  98              		@ Volatile: function does not return.
  99              		@ args = 0, pretend = 0, frame = 0
ARM GAS  E:\msys32\tmp\ccOXduHf.s 			page 3


 100              		@ frame_needed = 0, uses_anonymous_args = 0
 101              		@ link register save eliminated.
 102              	.L7:
 103 0000 FEE7     		b	.L7
 104              		.cfi_endproc
 105              	.LFE2:
 107              		.section	.text.MemManage_Handler,"ax",%progbits
 108              		.align	1
 109              		.global	MemManage_Handler
 110              		.syntax unified
 111              		.thumb
 112              		.thumb_func
 113              		.fpu fpv4-sp-d16
 115              	MemManage_Handler:
 116              	.LFB3:
  21:Src/stm32f4xx_it.c ****   while (1)
  22:Src/stm32f4xx_it.c ****   {
  23:Src/stm32f4xx_it.c ****   }
  24:Src/stm32f4xx_it.c **** }
  25:Src/stm32f4xx_it.c **** void MemManage_Handler(void)
  26:Src/stm32f4xx_it.c **** {
 117              		.loc 1 26 0
 118              		.cfi_startproc
 119              		@ Volatile: function does not return.
 120              		@ args = 0, pretend = 0, frame = 0
 121              		@ frame_needed = 0, uses_anonymous_args = 0
 122              		@ link register save eliminated.
 123              	.L9:
 124 0000 FEE7     		b	.L9
 125              		.cfi_endproc
 126              	.LFE3:
 128              		.section	.text.BusFault_Handler,"ax",%progbits
 129              		.align	1
 130              		.global	BusFault_Handler
 131              		.syntax unified
 132              		.thumb
 133              		.thumb_func
 134              		.fpu fpv4-sp-d16
 136              	BusFault_Handler:
 137              	.LFB4:
  27:Src/stm32f4xx_it.c ****   while (1)
  28:Src/stm32f4xx_it.c ****   {
  29:Src/stm32f4xx_it.c ****   }
  30:Src/stm32f4xx_it.c **** }
  31:Src/stm32f4xx_it.c **** 
  32:Src/stm32f4xx_it.c **** void BusFault_Handler(void)
  33:Src/stm32f4xx_it.c **** {
 138              		.loc 1 33 0
 139              		.cfi_startproc
 140              		@ Volatile: function does not return.
 141              		@ args = 0, pretend = 0, frame = 0
 142              		@ frame_needed = 0, uses_anonymous_args = 0
 143              		@ link register save eliminated.
 144              	.L11:
 145 0000 FEE7     		b	.L11
 146              		.cfi_endproc
 147              	.LFE4:
ARM GAS  E:\msys32\tmp\ccOXduHf.s 			page 4


 149              		.section	.text.UsageFault_Handler,"ax",%progbits
 150              		.align	1
 151              		.global	UsageFault_Handler
 152              		.syntax unified
 153              		.thumb
 154              		.thumb_func
 155              		.fpu fpv4-sp-d16
 157              	UsageFault_Handler:
 158              	.LFB5:
  34:Src/stm32f4xx_it.c ****   while (1)
  35:Src/stm32f4xx_it.c ****   {
  36:Src/stm32f4xx_it.c ****   }
  37:Src/stm32f4xx_it.c **** 
  38:Src/stm32f4xx_it.c **** }
  39:Src/stm32f4xx_it.c **** 
  40:Src/stm32f4xx_it.c **** void UsageFault_Handler(void)
  41:Src/stm32f4xx_it.c **** {
 159              		.loc 1 41 0
 160              		.cfi_startproc
 161              		@ Volatile: function does not return.
 162              		@ args = 0, pretend = 0, frame = 0
 163              		@ frame_needed = 0, uses_anonymous_args = 0
 164              		@ link register save eliminated.
 165              	.L13:
 166 0000 FEE7     		b	.L13
 167              		.cfi_endproc
 168              	.LFE5:
 170              		.section	.text.SVC_Handler,"ax",%progbits
 171              		.align	1
 172              		.global	SVC_Handler
 173              		.syntax unified
 174              		.thumb
 175              		.thumb_func
 176              		.fpu fpv4-sp-d16
 178              	SVC_Handler:
 179              	.LFB6:
  42:Src/stm32f4xx_it.c ****   while (1)
  43:Src/stm32f4xx_it.c ****   {
  44:Src/stm32f4xx_it.c ****   }
  45:Src/stm32f4xx_it.c **** }
  46:Src/stm32f4xx_it.c **** void SVC_Handler(void)
  47:Src/stm32f4xx_it.c **** {
 180              		.loc 1 47 0
 181              		.cfi_startproc
 182              		@ args = 0, pretend = 0, frame = 0
 183              		@ frame_needed = 0, uses_anonymous_args = 0
 184              		@ link register save eliminated.
  48:Src/stm32f4xx_it.c **** }
 185              		.loc 1 48 0
 186 0000 7047     		bx	lr
 187              		.cfi_endproc
 188              	.LFE6:
 190              		.section	.text.DebugMon_Handler,"ax",%progbits
 191              		.align	1
 192              		.global	DebugMon_Handler
 193              		.syntax unified
 194              		.thumb
ARM GAS  E:\msys32\tmp\ccOXduHf.s 			page 5


 195              		.thumb_func
 196              		.fpu fpv4-sp-d16
 198              	DebugMon_Handler:
 199              	.LFB7:
  49:Src/stm32f4xx_it.c **** 
  50:Src/stm32f4xx_it.c **** void DebugMon_Handler(void)
  51:Src/stm32f4xx_it.c **** {
 200              		.loc 1 51 0
 201              		.cfi_startproc
 202              		@ args = 0, pretend = 0, frame = 0
 203              		@ frame_needed = 0, uses_anonymous_args = 0
 204              		@ link register save eliminated.
  52:Src/stm32f4xx_it.c **** }
 205              		.loc 1 52 0
 206 0000 7047     		bx	lr
 207              		.cfi_endproc
 208              	.LFE7:
 210              		.section	.text.PendSV_Handler,"ax",%progbits
 211              		.align	1
 212              		.global	PendSV_Handler
 213              		.syntax unified
 214              		.thumb
 215              		.thumb_func
 216              		.fpu fpv4-sp-d16
 218              	PendSV_Handler:
 219              	.LFB8:
  53:Src/stm32f4xx_it.c **** 
  54:Src/stm32f4xx_it.c **** void PendSV_Handler(void)
  55:Src/stm32f4xx_it.c **** {
 220              		.loc 1 55 0
 221              		.cfi_startproc
 222              		@ args = 0, pretend = 0, frame = 0
 223              		@ frame_needed = 0, uses_anonymous_args = 0
 224              		@ link register save eliminated.
  56:Src/stm32f4xx_it.c **** }
 225              		.loc 1 56 0
 226 0000 7047     		bx	lr
 227              		.cfi_endproc
 228              	.LFE8:
 230              		.section	.text.SysTick_Handler,"ax",%progbits
 231              		.align	1
 232              		.global	SysTick_Handler
 233              		.syntax unified
 234              		.thumb
 235              		.thumb_func
 236              		.fpu fpv4-sp-d16
 238              	SysTick_Handler:
 239              	.LFB9:
  57:Src/stm32f4xx_it.c **** 
  58:Src/stm32f4xx_it.c **** void SysTick_Handler(void)
  59:Src/stm32f4xx_it.c **** {
 240              		.loc 1 59 0
 241              		.cfi_startproc
 242              		@ args = 0, pretend = 0, frame = 0
 243              		@ frame_needed = 0, uses_anonymous_args = 0
 244              		@ link register save eliminated.
  60:Src/stm32f4xx_it.c **** }
ARM GAS  E:\msys32\tmp\ccOXduHf.s 			page 6


 245              		.loc 1 60 0
 246 0000 7047     		bx	lr
 247              		.cfi_endproc
 248              	.LFE9:
 250              		.section	.text.mNVIC_SetPriority,"ax",%progbits
 251              		.align	1
 252              		.global	mNVIC_SetPriority
 253              		.syntax unified
 254              		.thumb
 255              		.thumb_func
 256              		.fpu fpv4-sp-d16
 258              	mNVIC_SetPriority:
 259              	.LFB10:
  61:Src/stm32f4xx_it.c **** void mNVIC_SetPriority(IRQn_Type ipr , u32_t pri){
 260              		.loc 1 61 0
 261              		.cfi_startproc
 262              		@ args = 0, pretend = 0, frame = 0
 263              		@ frame_needed = 0, uses_anonymous_args = 0
 264              		@ link register save eliminated.
 265              	.LVL4:
  62:Src/stm32f4xx_it.c **** 	// chia 4 .. stm32f4 chi dung 4 bit priority	 
  63:Src/stm32f4xx_it.c **** 	u32_t addr_ipr = (mNVIC_IPR(( (u32_t)ipr >> 2u ))) ;
 266              		.loc 1 63 0
 267 0000 8008     		lsrs	r0, r0, #2
 268              	.LVL5:
 269 0002 00F16050 		add	r0, r0, #939524096
 270 0006 00F56450 		add	r0, r0, #14592
 271 000a 8000     		lsls	r0, r0, #2
 272              	.LVL6:
  64:Src/stm32f4xx_it.c **** 	u32_t temp_reg = read_reg(addr_ipr, ~0u);
 273              		.loc 1 64 0
 274 000c 0368     		ldr	r3, [r0]
 275              	.LVL7:
  65:Src/stm32f4xx_it.c **** 	temp_reg |=  ( ((u32_t)pri  & 0xFFu ) << 4u ) ;
 276              		.loc 1 65 0
 277 000e 0901     		lsls	r1, r1, #4
 278              	.LVL8:
 279 0010 01F47F61 		and	r1, r1, #4080
 280 0014 1943     		orrs	r1, r1, r3
 281              	.LVL9:
  66:Src/stm32f4xx_it.c **** 	write_reg(addr_ipr, temp_reg);
 282              		.loc 1 66 0
 283 0016 0160     		str	r1, [r0]
  67:Src/stm32f4xx_it.c **** 	 
  68:Src/stm32f4xx_it.c **** }
 284              		.loc 1 68 0
 285 0018 7047     		bx	lr
 286              		.cfi_endproc
 287              	.LFE10:
 289              		.section	.text.mNVIC_EnableIRQ,"ax",%progbits
 290              		.align	1
 291              		.global	mNVIC_EnableIRQ
 292              		.syntax unified
 293              		.thumb
 294              		.thumb_func
 295              		.fpu fpv4-sp-d16
 297              	mNVIC_EnableIRQ:
ARM GAS  E:\msys32\tmp\ccOXduHf.s 			page 7


 298              	.LFB11:
  69:Src/stm32f4xx_it.c **** void mNVIC_EnableIRQ(IRQn_Type irq){
 299              		.loc 1 69 0
 300              		.cfi_startproc
 301              		@ args = 0, pretend = 0, frame = 0
 302              		@ frame_needed = 0, uses_anonymous_args = 0
 303              		@ link register save eliminated.
 304              	.LVL10:
  70:Src/stm32f4xx_it.c **** 	// iser /32 ,%32
  71:Src/stm32f4xx_it.c **** 	u32_t addr_irq = mNVIC_ISER( ((u32_t)irq >> 5u) )  ;
 305              		.loc 1 71 0
 306 0000 4309     		lsrs	r3, r0, #5
 307 0002 03F13823 		add	r3, r3, #939538432
 308 0006 4033     		adds	r3, r3, #64
 309 0008 9B00     		lsls	r3, r3, #2
 310              	.LVL11:
  72:Src/stm32f4xx_it.c **** 	
  73:Src/stm32f4xx_it.c **** 	u32_t temp_reg = read_reg(addr_irq , ~0u);
 311              		.loc 1 73 0
 312 000a 1968     		ldr	r1, [r3]
 313              	.LVL12:
  74:Src/stm32f4xx_it.c **** 	temp_reg |=  (u32_t)(1UL << ((u32_t)irq & 0x1Fu )) ;
 314              		.loc 1 74 0
 315 000c 00F01F02 		and	r2, r0, #31
 316 0010 0120     		movs	r0, #1
 317              	.LVL13:
 318 0012 9040     		lsls	r0, r0, r2
 319 0014 0843     		orrs	r0, r0, r1
 320              	.LVL14:
  75:Src/stm32f4xx_it.c **** 	write_reg(addr_irq, temp_reg);
 321              		.loc 1 75 0
 322 0016 1860     		str	r0, [r3]
  76:Src/stm32f4xx_it.c **** 	
  77:Src/stm32f4xx_it.c **** }
 323              		.loc 1 77 0
 324 0018 7047     		bx	lr
 325              		.cfi_endproc
 326              	.LFE11:
 328              		.text
 329              	.Letext0:
 330              		.file 2 "E:/Users/VuHaiLong/Documents/stm/mylib/mInc/mtype.h"
 331              		.file 3 "E:/Users/VuHaiLong/Documents/stm/mylib/mInc/const.h"
 332              		.file 4 "Inc/stm32f4xx_it.h"
 333              		.file 5 "E:/Users/VuHaiLong/Documents/stm/mylib/mInc/gpio.h"
ARM GAS  E:\msys32\tmp\ccOXduHf.s 			page 8

