ARM GAS  E:\msys32\tmp\ccBwCsey.s 			page 1


   1              		.cpu cortex-m4
   2              		.eabi_attribute 27, 1
   3              		.eabi_attribute 28, 1
   4              		.eabi_attribute 20, 1
   5              		.eabi_attribute 21, 1
   6              		.eabi_attribute 23, 3
   7              		.eabi_attribute 24, 1
   8              		.eabi_attribute 25, 1
   9              		.eabi_attribute 26, 1
  10              		.eabi_attribute 30, 1
  11              		.eabi_attribute 34, 1
  12              		.eabi_attribute 18, 4
  13              		.file	"main.c"
  14              		.text
  15              	.Ltext0:
  16              		.cfi_sections	.debug_frame
  17              		.section	.text.delay,"ax",%progbits
  18              		.align	1
  19              		.global	delay
  20              		.syntax unified
  21              		.thumb
  22              		.thumb_func
  23              		.fpu fpv4-sp-d16
  25              	delay:
  26              	.LFB0:
  27              		.file 1 "Src/main.c"
   1:Src/main.c    **** #include "project.h"
   2:Src/main.c    **** 
   3:Src/main.c    **** 
   4:Src/main.c    **** char times = 0;
   5:Src/main.c    **** 
   6:Src/main.c    **** void delay( u32_t timeout){
  28              		.loc 1 6 0
  29              		.cfi_startproc
  30              		@ args = 0, pretend = 0, frame = 0
  31              		@ frame_needed = 0, uses_anonymous_args = 0
  32              		@ link register save eliminated.
  33              	.LVL0:
   7:Src/main.c    **** 	
   8:Src/main.c    **** 	u32_t t1 , t2;
   9:Src/main.c    **** 	for( t1 = 0 ; t1 < timeout ; t1 ++)
  34              		.loc 1 9 0
  35 0000 0021     		movs	r1, #0
  36 0002 06E0     		b	.L2
  37              	.LVL1:
  38              	.L3:
  10:Src/main.c    **** 		for( t2 = 0 ; t2 < 0xFFF ; t2 ++)
  11:Src/main.c    **** 			asm(" nop");
  39              		.loc 1 11 0 discriminator 3
  40              		.syntax unified
  41              	@ 11 "Src/main.c" 1
  42 0004 00BF     		 nop
  43              	@ 0 "" 2
  10:Src/main.c    **** 		for( t2 = 0 ; t2 < 0xFFF ; t2 ++)
  44              		.loc 1 10 0 discriminator 3
  45              		.thumb
  46              		.syntax unified
ARM GAS  E:\msys32\tmp\ccBwCsey.s 			page 2


  47 0006 0133     		adds	r3, r3, #1
  48              	.LVL2:
  49              	.L4:
  10:Src/main.c    **** 		for( t2 = 0 ; t2 < 0xFFF ; t2 ++)
  50              		.loc 1 10 0 is_stmt 0 discriminator 1
  51 0008 40F6FE72 		movw	r2, #4094
  52 000c 9342     		cmp	r3, r2
  53 000e F9D9     		bls	.L3
   9:Src/main.c    **** 		for( t2 = 0 ; t2 < 0xFFF ; t2 ++)
  54              		.loc 1 9 0 is_stmt 1 discriminator 2
  55 0010 0131     		adds	r1, r1, #1
  56              	.LVL3:
  57              	.L2:
   9:Src/main.c    **** 		for( t2 = 0 ; t2 < 0xFFF ; t2 ++)
  58              		.loc 1 9 0 is_stmt 0 discriminator 1
  59 0012 8142     		cmp	r1, r0
  60 0014 01D2     		bcs	.L6
  10:Src/main.c    **** 		for( t2 = 0 ; t2 < 0xFFF ; t2 ++)
  61              		.loc 1 10 0 is_stmt 1
  62 0016 0023     		movs	r3, #0
  63 0018 F6E7     		b	.L4
  64              	.L6:
  12:Src/main.c    **** 
  13:Src/main.c    **** }
  65              		.loc 1 13 0
  66 001a 7047     		bx	lr
  67              		.cfi_endproc
  68              	.LFE0:
  70              		.section	.text.main,"ax",%progbits
  71              		.align	1
  72              		.global	main
  73              		.syntax unified
  74              		.thumb
  75              		.thumb_func
  76              		.fpu fpv4-sp-d16
  78              	main:
  79              	.LFB1:
  14:Src/main.c    **** //clock setup 50mhz for processor
  15:Src/main.c    **** int main(void)
  16:Src/main.c    **** {
  80              		.loc 1 16 0
  81              		.cfi_startproc
  82              		@ Volatile: function does not return.
  83              		@ args = 0, pretend = 0, frame = 0
  84              		@ frame_needed = 0, uses_anonymous_args = 0
  85 0000 00B5     		push	{lr}
  86              	.LCFI0:
  87              		.cfi_def_cfa_offset 4
  88              		.cfi_offset 14, -4
  89 0002 85B0     		sub	sp, sp, #20
  90              	.LCFI1:
  91              		.cfi_def_cfa_offset 24
  17:Src/main.c    **** 	//void system_init( div_m, u32_t mul_n, u32_t div_p, u32_t system_source,u32_t div_ahb,u32_t div_a
  18:Src/main.c    **** 	system_init( 8, 100, PLLP_DIV2 , SRC_PLL, AHB_DIV1 ,APB_DIV8  , APB_DIV1);
  92              		.loc 1 18 0
  93 0004 0022     		movs	r2, #0
  94 0006 0292     		str	r2, [sp, #8]
ARM GAS  E:\msys32\tmp\ccBwCsey.s 			page 3


  95 0008 0623     		movs	r3, #6
  96 000a 0193     		str	r3, [sp, #4]
  97 000c 0092     		str	r2, [sp]
  98 000e 0223     		movs	r3, #2
  99 0010 6421     		movs	r1, #100
 100 0012 0820     		movs	r0, #8
 101 0014 FFF7FEFF 		bl	system_init
 102              	.LVL4:
  19:Src/main.c    **** 	rcc_enableclk();
 103              		.loc 1 19 0
 104 0018 FFF7FEFF 		bl	rcc_enableclk
 105              	.LVL5:
  20:Src/main.c    **** 	init_pin();
 106              		.loc 1 20 0
 107 001c FFF7FEFF 		bl	init_pin
 108              	.LVL6:
  21:Src/main.c    **** 	
  22:Src/main.c    **** 	uart_init(100, 16 , 9600);
 109              		.loc 1 22 0
 110 0020 4FF41652 		mov	r2, #9600
 111 0024 1021     		movs	r1, #16
 112 0026 6420     		movs	r0, #100
 113 0028 FFF7FEFF 		bl	uart_init
 114              	.LVL7:
  23:Src/main.c    **** 	init_interrupt();
 115              		.loc 1 23 0
 116 002c FFF7FEFF 		bl	init_interrupt
 117              	.LVL8:
  24:Src/main.c    **** 	usart_send_string("Hello world -VHL");
 118              		.loc 1 24 0
 119 0030 0948     		ldr	r0, .L11
 120 0032 FFF7FEFF 		bl	usart_send_string
 121              	.LVL9:
 122              	.L8:
  25:Src/main.c    **** 	
  26:Src/main.c    **** 
  27:Src/main.c    ****     while(1)
  28:Src/main.c    ****     {
  29:Src/main.c    **** 	#if 1
  30:Src/main.c    ****         if (0 != rx_data)
 123              		.loc 1 30 0
 124 0036 094B     		ldr	r3, .L11+4
 125 0038 1B78     		ldrb	r3, [r3]	@ zero_extendqisi2
 126 003a 002B     		cmp	r3, #0
 127 003c FBD0     		beq	.L8
  31:Src/main.c    ****         {
  32:Src/main.c    ****             usart_send_byte(rx_data);
 128              		.loc 1 32 0
 129 003e 074C     		ldr	r4, .L11+4
 130 0040 2078     		ldrb	r0, [r4]	@ zero_extendqisi2
 131 0042 FFF7FEFF 		bl	usart_send_byte
 132              	.LVL10:
  33:Src/main.c    **** 			GPIO_TongglePin(GPIOD , (GPIO_PIN(12) | GPIO_PIN(13) | GPIO_PIN(14) | GPIO_PIN(15) ) ) ;
 133              		.loc 1 33 0
 134 0046 4FF47041 		mov	r1, #61440
 135 004a 0548     		ldr	r0, .L11+8
 136 004c FFF7FEFF 		bl	GPIO_TongglePin
ARM GAS  E:\msys32\tmp\ccBwCsey.s 			page 4


 137              	.LVL11:
  34:Src/main.c    **** 		
  35:Src/main.c    ****             rx_data = 0;
 138              		.loc 1 35 0
 139 0050 0023     		movs	r3, #0
 140 0052 2370     		strb	r3, [r4]
 141 0054 EFE7     		b	.L8
 142              	.L12:
 143 0056 00BF     		.align	2
 144              	.L11:
 145 0058 00000000 		.word	.LC0
 146 005c 00000000 		.word	rx_data
 147 0060 000C0240 		.word	1073875968
 148              		.cfi_endproc
 149              	.LFE1:
 151              		.global	times
 152              		.section	.bss.times,"aw",%nobits
 155              	times:
 156 0000 00       		.space	1
 157              		.section	.rodata.main.str1.4,"aMS",%progbits,1
 158              		.align	2
 159              	.LC0:
 160 0000 48656C6C 		.ascii	"Hello world -VHL\000"
 160      6F20776F 
 160      726C6420 
 160      2D56484C 
 160      00
 161              		.text
 162              	.Letext0:
 163              		.file 2 "Inc/stm32f4xx_it.h"
 164              		.file 3 "Inc/clock.h"
 165              		.file 4 "Inc/gpio.h"
 166              		.file 5 "Inc/uart.h"
 167              		.file 6 "Inc/main.h"
ARM GAS  E:\msys32\tmp\ccBwCsey.s 			page 5


DEFINED SYMBOLS
                            *ABS*:00000000 main.c
E:\msys32\tmp\ccBwCsey.s:18     .text.delay:00000000 $t
E:\msys32\tmp\ccBwCsey.s:25     .text.delay:00000000 delay
E:\msys32\tmp\ccBwCsey.s:71     .text.main:00000000 $t
E:\msys32\tmp\ccBwCsey.s:78     .text.main:00000000 main
E:\msys32\tmp\ccBwCsey.s:145    .text.main:00000058 $d
E:\msys32\tmp\ccBwCsey.s:155    .bss.times:00000000 times
E:\msys32\tmp\ccBwCsey.s:156    .bss.times:00000000 $d
E:\msys32\tmp\ccBwCsey.s:158    .rodata.main.str1.4:00000000 $d

UNDEFINED SYMBOLS
system_init
rcc_enableclk
init_pin
uart_init
init_interrupt
usart_send_string
usart_send_byte
GPIO_TongglePin
rx_data
